; Function Attrs: nofree norecurse nosync nounwind memory(argmem: readwrite) uwtable
define dso_local void @bit_nclear(ptr noundef captures(none) %0, i64 noundef %1, i64 noundef %2) #2 {
  %invariant.gep = getelementptr i8, ptr %0, i64 16
  %.not20 = icmp sle i64 %1, %2
  %4 = and i64 %1, -9223372036854775801
  %5 = icmp sgt i64 %4, 0
  %or.cond21 = and i1 %.not20, %5
  br i1 %or.cond21, label %.lr.ph, label %.critedge.preheader

.critedge.preheader:                              ; preds = %.lr.ph, %3
  %.017.lcssa = phi i64 [ %1, %3 ], [ %6, %.lr.ph ]
  %.not1825 = icmp slt i64 %2, %.017.lcssa
  br i1 %.not1825, label %.critedge2, label %.lr.ph27

.lr.ph:                                           ; preds = %3, %.lr.ph
  %.01722 = phi i64 [ %6, %.lr.ph ], [ %1, %3 ]
  %6 = add nsw i64 %.01722, 1
  %7 = and i64 %.01722, 63
  %8 = shl nuw i64 1, %7
  %9 = xor i64 %8, -1
  %10 = ashr i64 %.01722, 6
  %gep = getelementptr i64, ptr %invariant.gep, i64 %10
  %11 = load i64, ptr %gep, align 8
  %12 = and i64 %11, %9
  store i64 %12, ptr %gep, align 8
  %.not = icmp slt i64 %.01722, %2
  %13 = and i64 %6, -9223372036854775801
  %14 = icmp sgt i64 %13, 0
  %or.cond = and i1 %.not, %14
  br i1 %or.cond, label %.lr.ph, label %.critedge.preheader, !llvm.loop !8

.lr.ph27:                                         ; preds = %.critedge.preheader, %.critedge
  %.026 = phi i64 [ %18, %.critedge ], [ %2, %.critedge.preheader ]
  %15 = add nsw i64 %.026, 1
  %16 = and i64 %15, -9223372036854775801
  %17 = icmp sgt i64 %16, 0
  br i1 %17, label %.critedge, label %.critedge2

.critedge:                                        ; preds = %.lr.ph27
  %18 = add nsw i64 %.026, -1
  %19 = and i64 %.026, 63
  %20 = shl nuw i64 1, %19
  %21 = xor i64 %20, -1
  %22 = ashr i64 %.026, 6
  %gep24 = getelementptr i64, ptr %invariant.gep, i64 %22
  %23 = load i64, ptr %gep24, align 8
  %24 = and i64 %23, %21
  store i64 %24, ptr %gep24, align 8
  %.not18.not = icmp sgt i64 %.026, %.017.lcssa
  br i1 %.not18.not, label %.lr.ph27, label %.critedge2, !llvm.loop !11

.critedge2:                                       ; preds = %.lr.ph27, %.critedge, %.critedge.preheader
  %.0.lcssa = phi i64 [ %2, %.critedge.preheader ], [ %18, %.critedge ], [ %.026, %.lr.ph27 ]
  %25 = icmp sgt i64 %.0.lcssa, %.017.lcssa
  br i1 %25, label %26, label %31

26:                                               ; preds = %.critedge2
  %27 = ashr i64 %.017.lcssa, 3
  %28 = getelementptr inbounds i8, ptr %invariant.gep, i64 %27
  %reass.sub = sub i64 %.0.lcssa, %.017.lcssa
  %29 = add i64 %reass.sub, 1
  %30 = sdiv i64 %29, 8
  tail call void @llvm.memset.p0.i64(ptr nonnull align 1 %28, i8 0, i64 %30, i1 false)
  br label %31

31:                                               ; preds = %26, %.critedge2
  ret void
}